target datalayout = "e-m:e-p270:32:32-p271:32:32-p272:64:64-i64:64-i128:128-f80:128-n8:16:32:64-S128"
target triple = "x86_64-pc-linux-gnu"

%struct.Mig_Man_t_ = type { ptr, i32, i32, i32, %struct.Vec_Ptr_t_, %struct.Vec_Int_t_, %struct.Vec_Int_t_, ptr, i32, i32, %struct.Vec_Int_t_, %struct.Vec_Int_t_, %struct.Vec_Int_t_, %struct.Vec_Int_t_, %struct.Vec_Int_t_, ptr }
%struct.Vec_Ptr_t_ = type { i32, i32, ptr }
%struct.Vec_Int_t_ = type { i32, i32, ptr }
%struct.Mig_Obj_t_ = type { [4 x %struct.Mig_Fan_t_] }
%struct.Mig_Fan_t_ = type { i32 }

; Function Attrs: nounwind uwtable
define internal i32 @Mig_FanId(ptr noundef %0, i32 noundef %1) #0 {
  %3 = alloca ptr, align 8
  %4 = alloca i32, align 4
  store ptr %0, ptr %3, align 8
  store i32 %1, ptr %4, align 4
  %5 = load ptr, ptr %3, align 8
  %6 = getelementptr inbounds %struct.Mig_Obj_t_, ptr %5, i32 0, i32 0
  %7 = load i32, ptr %4, align 4
  %8 = sext i32 %7 to i64
  %9 = getelementptr inbounds [4 x %struct.Mig_Fan_t_], ptr %6, i64 0, i64 %8
  %10 = load i32, ptr %9, align 4
  %11 = lshr i32 %10, 1
  ret i32 %11
}

; Function Attrs: nounwind uwtable
define internal i32 @Mig_ObjIsNode2(ptr noundef %0) #0 {
  %2 = alloca ptr, align 8
  store ptr %0, ptr %2, align 8
  %3 = load ptr, ptr %2, align 8
  %4 = call i32 @Mig_ObjIsNode(ptr noundef %3)
  %5 = icmp ne i32 %4, 0
  br i1 %5, label %6, label %10

6:                                                ; preds = %1
  %7 = load ptr, ptr %2, align 8
  %8 = call i32 @Mig_FanIsNone(ptr noundef %7, i32 noundef 2)
  %9 = icmp ne i32 %8, 0
  br label %10

10:                                               ; preds = %6, %1
  %11 = phi i1 [ false, %1 ], [ %9, %6 ]
  %12 = zext i1 %11 to i32
  ret i32 %12
}

; Function Attrs: nounwind uwtable
define internal i32 @Mig_ObjIsXor(ptr noundef %0) #0 {
  %2 = alloca ptr, align 8
  store ptr %0, ptr %2, align 8
  %3 = load ptr, ptr %2, align 8
  %4 = call i32 @Mig_ObjIsNode2(ptr noundef %3)
  %5 = icmp ne i32 %4, 0
  br i1 %5, label %6, label %12

6:                                                ; preds = %1
  %7 = load ptr, ptr %2, align 8
  %8 = call i32 @Mig_FanId(ptr noundef %7, i32 noundef 0)
  %9 = load ptr, ptr %2, align 8
  %10 = call i32 @Mig_FanId(ptr noundef %9, i32 noundef 1)
  %11 = icmp sgt i32 %8, %10
  br label %12

12:                                               ; preds = %6, %1
  %13 = phi i1 [ false, %1 ], [ %11, %6 ]
  %14 = zext i1 %13 to i32
  ret i32 %14
}

; Function Attrs: nounwind uwtable
define internal i32 @Mig_ObjIsAnd(ptr noundef %0) #0 {
  %2 = alloca ptr, align 8
  store ptr %0, ptr %2, align 8
  %3 = load ptr, ptr %2, align 8
  %4 = call i32 @Mig_ObjIsNode2(ptr noundef %3)
  %5 = icmp ne i32 %4, 0
  br i1 %5, label %6, label %12

6:                                                ; preds = %1
  %7 = load ptr, ptr %2, align 8
  %8 = call i32 @Mig_FanId(ptr noundef %7, i32 noundef 0)
  %9 = load ptr, ptr %2, align 8
  %10 = call i32 @Mig_FanId(ptr noundef %9, i32 noundef 1)
  %11 = icmp slt i32 %8, %10
  br label %12

12:                                               ; preds = %6, %1
  %13 = phi i1 [ false, %1 ], [ %11, %6 ]
  %14 = zext i1 %13 to i32
  ret i32 %14
}

; Function Attrs: nounwind uwtable
define internal i32 @Mig_FanIsNone(ptr noundef %0, i32 noundef %1) #0 {
  %3 = alloca ptr, align 8
  %4 = alloca i32, align 4
  store ptr %0, ptr %3, align 8
  store i32 %1, ptr %4, align 4
  %5 = load ptr, ptr %3, align 8
  %6 = getelementptr inbounds %struct.Mig_Obj_t_, ptr %5, i32 0, i32 0
  %7 = load i32, ptr %4, align 4
  %8 = sext i32 %7 to i64
  %9 = getelementptr inbounds [4 x %struct.Mig_Fan_t_], ptr %6, i64 0, i64 %8
  %10 = load i32, ptr %9, align 4
  %11 = lshr i32 %10, 1
  %12 = icmp eq i32 %11, 2147483647
  %13 = zext i1 %12 to i32
  ret i32 %13
}

; Function Attrs: nounwind uwtable
define internal i32 @Mig_ObjNodeType(ptr noundef %0) #0 {
  %2 = alloca ptr, align 8
  store ptr %0, ptr %2, align 8
  %3 = load ptr, ptr %2, align 8
  %4 = call i32 @Mig_ObjIsAnd(ptr noundef %3)
  %5 = icmp ne i32 %4, 0
  br i1 %5, label %6, label %7

6:                                                ; preds = %1
  br label %12

7:                                                ; preds = %1
  %8 = load ptr, ptr %2, align 8
  %9 = call i32 @Mig_ObjIsXor(ptr noundef %8)
  %10 = icmp ne i32 %9, 0
  %11 = select i1 %10, i32 2, i32 3
  br label %12

12:                                               ; preds = %7, %6
  %13 = phi i32 [ 1, %6 ], [ %11, %7 ]
  ret i32 %13
}

; Function Attrs: nounwind uwtable
define internal i32 @Mig_ObjIsNode(ptr noundef %0) #0 {
  %2 = alloca ptr, align 8
  store ptr %0, ptr %2, align 8
  %3 = load ptr, ptr %2, align 8
  %4 = call i32 @Mig_FanIsNone(ptr noundef %3, i32 noundef 1)
  %5 = icmp ne i32 %4, 0
  %6 = xor i1 %5, true
  %7 = zext i1 %6 to i32
  ret i32 %7
}

; Function Attrs: nounwind uwtable
define internal i32 @Mig_ObjIsNone(ptr noundef %0) #0 {
  %2 = alloca ptr, align 8
  store ptr %0, ptr %2, align 8
  %3 = load ptr, ptr %2, align 8
  %4 = call i32 @Mig_FanIsNone(ptr noundef %3, i32 noundef 3)
  ret i32 %4
}

; Function Attrs: nounwind uwtable
define internal ptr @Vec_PtrEntry(ptr noundef %0, i32 noundef %1) #0 {
  %3 = alloca ptr, align 8
  %4 = alloca i32, align 4
  store ptr %0, ptr %3, align 8
  store i32 %1, ptr %4, align 4
  %5 = load ptr, ptr %3, align 8
  %6 = getelementptr inbounds %struct.Vec_Ptr_t_, ptr %5, i32 0, i32 2
  %7 = load ptr, ptr %6, align 8
  %8 = load i32, ptr %4, align 4
  %9 = sext i32 %8 to i64
  %10 = getelementptr inbounds ptr, ptr %7, i64 %9
  %11 = load ptr, ptr %10, align 8
  ret ptr %11
}

; Function Attrs: nounwind uwtable
define internal i32 @Vec_PtrSize(ptr noundef %0) #0 {
  %2 = alloca ptr, align 8
  store ptr %0, ptr %2, align 8
  %3 = load ptr, ptr %2, align 8
  %4 = getelementptr inbounds %struct.Vec_Ptr_t_, ptr %3, i32 0, i32 1
  %5 = load i32, ptr %4, align 4
  ret i32 %5
}

; Function Attrs: nounwind uwtable
define i32 @Mig_ManTypeNum(ptr noundef %0, i32 noundef %1) #0 {
  %3 = alloca ptr, align 8
  %4 = alloca i32, align 4
  %5 = alloca ptr, align 8
  %6 = alloca i32, align 4
  store ptr %0, ptr %3, align 8
  store i32 %1, ptr %4, align 4
  store i32 0, ptr %6, align 4
  %7 = load ptr, ptr %3, align 8
  %8 = getelementptr inbounds %struct.Mig_Man_t_, ptr %7, i32 0, i32 8
  store i32 0, ptr %8, align 8
  br label %9

9:                                                ; preds = %56, %2
  %10 = load ptr, ptr %3, align 8
  %11 = getelementptr inbounds %struct.Mig_Man_t_, ptr %10, i32 0, i32 8
  %12 = load i32, ptr %11, align 8
  %13 = load ptr, ptr %3, align 8
  %14 = getelementptr inbounds %struct.Mig_Man_t_, ptr %13, i32 0, i32 4
  %15 = call i32 @Vec_PtrSize(ptr noundef %14)
  %16 = icmp slt i32 %12, %15
  br i1 %16, label %17, label %27

17:                                               ; preds = %9
  %18 = load ptr, ptr %3, align 8
  %19 = getelementptr inbounds %struct.Mig_Man_t_, ptr %18, i32 0, i32 4
  %20 = load ptr, ptr %3, align 8
  %21 = getelementptr inbounds %struct.Mig_Man_t_, ptr %20, i32 0, i32 8
  %22 = load i32, ptr %21, align 8
  %23 = call ptr @Vec_PtrEntry(ptr noundef %19, i32 noundef %22)
  %24 = load ptr, ptr %3, align 8
  %25 = getelementptr inbounds %struct.Mig_Man_t_, ptr %24, i32 0, i32 7
  store ptr %23, ptr %25, align 8
  %26 = icmp ne ptr %23, null
  br label %27

27:                                               ; preds = %17, %9
  %28 = phi i1 [ false, %9 ], [ %26, %17 ]
  br i1 %28, label %29, label %61

29:                                               ; preds = %27
  %30 = load ptr, ptr %3, align 8
  %31 = getelementptr inbounds %struct.Mig_Man_t_, ptr %30, i32 0, i32 7
  %32 = load ptr, ptr %31, align 8
  store ptr %32, ptr %5, align 8
  br label %33

33:                                               ; preds = %52, %29
  %34 = load ptr, ptr %5, align 8
  %35 = call i32 @Mig_ObjIsNone(ptr noundef %34)
  %36 = icmp ne i32 %35, 0
  %37 = xor i1 %36, true
  br i1 %37, label %38, label %55

38:                                               ; preds = %33
  %39 = load ptr, ptr %5, align 8
  %40 = call i32 @Mig_ObjIsNode(ptr noundef %39)
  %41 = icmp ne i32 %40, 0
  br i1 %41, label %43, label %42

42:                                               ; preds = %38
  br label %51

43:                                               ; preds = %38
  %44 = load ptr, ptr %5, align 8
  %45 = call i32 @Mig_ObjNodeType(ptr noundef %44)
  %46 = load i32, ptr %4, align 4
  %47 = icmp eq i32 %45, %46
  %48 = zext i1 %47 to i32
  %49 = load i32, ptr %6, align 4
  %50 = add nsw i32 %49, %48
  store i32 %50, ptr %6, align 4
  br label %51

51:                                               ; preds = %43, %42
  br label %52

52:                                               ; preds = %51
  %53 = load ptr, ptr %5, align 8
  %54 = getelementptr inbounds %struct.Mig_Obj_t_, ptr %53, i32 1
  store ptr %54, ptr %5, align 8
  br label %33, !llvm.loop !6

55:                                               ; preds = %33
  br label %56

56:                                               ; preds = %55
  %57 = load ptr, ptr %3, align 8
  %58 = getelementptr inbounds %struct.Mig_Man_t_, ptr %57, i32 0, i32 8
  %59 = load i32, ptr %58, align 8
  %60 = add nsw i32 %59, 1
  store i32 %60, ptr %58, align 8
  br label %9, !llvm.loop !7

61:                                               ; preds = %27
  %62 = load i32, ptr %6, align 4
  ret i32 %62
}

; Function Attrs: nounwind uwtable
define i32 @Mig_ManMuxNum(ptr noundef %0) #0 {
  %2 = alloca ptr, align 8
  store ptr %0, ptr %2, align 8
  %3 = load ptr, ptr %2, align 8
  %4 = call i32 @Mig_ManTypeNum(ptr noundef %3, i32 noundef 3)
  ret i32 %4
}